target datalayout = "e-m:e-p270:32:32-p271:32:32-p272:64:64-i64:64-i128:128-f80:128-n8:16:32:64-S128"
target triple = "x86_64-pc-linux-gnu"

%struct.Ivy_Store_t_ = type { i32, i32, i32, i32, [256 x %struct.Ivy_Cut_t_] }
%struct.Ivy_Cut_t_ = type { i32, i16, i16, [6 x i32], i32 }

; Function Attrs: nounwind uwtable
define void @Ivy_NodeCompactCuts(ptr noundef %0) #0 {
  %2 = alloca ptr, align 8
  %3 = alloca ptr, align 8
  %4 = alloca i32, align 4
  %5 = alloca i32, align 4
  store ptr %0, ptr %2, align 8
  store i32 0, ptr %5, align 4
  store i32 0, ptr %4, align 4
  br label %6

6:                                                ; preds = %33, %1
  %7 = load i32, ptr %4, align 4
  %8 = load ptr, ptr %2, align 8
  %9 = getelementptr inbounds %struct.Ivy_Store_t_, ptr %8, i32 0, i32 0
  %10 = load i32, ptr %9, align 4
  %11 = icmp slt i32 %7, %10
  br i1 %11, label %12, label %36

12:                                               ; preds = %6
  %13 = load ptr, ptr %2, align 8
  %14 = getelementptr inbounds %struct.Ivy_Store_t_, ptr %13, i32 0, i32 4
  %15 = getelementptr inbounds [256 x %struct.Ivy_Cut_t_], ptr %14, i64 0, i64 0
  %16 = load i32, ptr %4, align 4
  %17 = sext i32 %16 to i64
  %18 = getelementptr inbounds %struct.Ivy_Cut_t_, ptr %15, i64 %17
  store ptr %18, ptr %3, align 8
  %19 = load ptr, ptr %3, align 8
  %20 = getelementptr inbounds %struct.Ivy_Cut_t_, ptr %19, i32 0, i32 1
  %21 = load i16, ptr %20, align 4
  %22 = sext i16 %21 to i32
  %23 = icmp eq i32 %22, 0
  br i1 %23, label %24, label %25

24:                                               ; preds = %12
  br label %33

25:                                               ; preds = %12
  %26 = load ptr, ptr %2, align 8
  %27 = getelementptr inbounds %struct.Ivy_Store_t_, ptr %26, i32 0, i32 4
  %28 = load i32, ptr %5, align 4
  %29 = add nsw i32 %28, 1
  store i32 %29, ptr %5, align 4
  %30 = sext i32 %28 to i64
  %31 = getelementptr inbounds [256 x %struct.Ivy_Cut_t_], ptr %27, i64 0, i64 %30
  %32 = load ptr, ptr %3, align 8
  call void @llvm.memcpy.p0.p0.i64(ptr align 4 %31, ptr align 4 %32, i64 36, i1 false)
  br label %33

33:                                               ; preds = %25, %24
  %34 = load i32, ptr %4, align 4
  %35 = add nsw i32 %34, 1
  store i32 %35, ptr %4, align 4
  br label %6, !llvm.loop !28

36:                                               ; preds = %6
  %37 = load i32, ptr %5, align 4
  %38 = load ptr, ptr %2, align 8
  %39 = getelementptr inbounds %struct.Ivy_Store_t_, ptr %38, i32 0, i32 0
  store i32 %37, ptr %39, align 4
  ret void
}