; Function Attrs: nofree norecurse nosync nounwind memory(argmem: readwrite) uwtable
define void @Ivy_NodeCompactCuts(ptr noundef captures(none) %0) local_unnamed_addr #6 {
  %2 = load i32, ptr %0, align 4
  %3 = icmp sgt i32 %2, 0
  br i1 %3, label %.lr.ph, label %._crit_edge

.lr.ph:                                           ; preds = %1
  %4 = getelementptr inbounds nuw i8, ptr %0, i64 16
  br label %5

5:                                                ; preds = %.lr.ph, %15
  %6 = phi i32 [ %2, %.lr.ph ], [ %16, %15 ]
  %indvars.iv = phi i64 [ 0, %.lr.ph ], [ %indvars.iv.next, %15 ]
  %.012 = phi i32 [ 0, %.lr.ph ], [ %.1, %15 ]
  %7 = getelementptr inbounds nuw %struct.Ivy_Cut_t_, ptr %4, i64 %indvars.iv
  %8 = getelementptr inbounds nuw i8, ptr %7, i64 4
  %9 = load i16, ptr %8, align 4
  %10 = icmp eq i16 %9, 0
  br i1 %10, label %15, label %11

11:                                               ; preds = %5
  %12 = add nsw i32 %.012, 1
  %13 = sext i32 %.012 to i64
  %14 = getelementptr inbounds [256 x %struct.Ivy_Cut_t_], ptr %4, i64 0, i64 %13
  tail call void @llvm.memcpy.p0.p0.i64(ptr noundef nonnull align 4 dereferenceable(36) %14, ptr noundef nonnull align 4 dereferenceable(36) %7, i64 36, i1 false)
  %.pre = load i32, ptr %0, align 4
  br label %15

15:                                               ; preds = %5, %11
  %16 = phi i32 [ %6, %5 ], [ %.pre, %11 ]
  %.1 = phi i32 [ %.012, %5 ], [ %12, %11 ]
  %indvars.iv.next = add nuw nsw i64 %indvars.iv, 1
  %17 = sext i32 %16 to i64
  %18 = icmp slt i64 %indvars.iv.next, %17
  br i1 %18, label %5, label %._crit_edge, !llvm.loop !28

._crit_edge:                                      ; preds = %15, %1
  %.0.lcssa = phi i32 [ 0, %1 ], [ %.1, %15 ]
  store i32 %.0.lcssa, ptr %0, align 4
  ret void
}